target datalayout = "e-m:e-p270:32:32-p271:32:32-p272:64:64-i64:64-i128:128-f80:128-n8:16:32:64-S128"
target triple = "x86_64-pc-linux-gnu"

@.str = private unnamed_addr constant [103 x i8] c"generated/home/dtcxzyw/WorkSpace/Projects/compilers/llvm-opt-benchmark/bench/hdf5/hdf5/src/H5Oshared.c\00", align 1
@H5E_OHDR_g = external global i64, align 8
@H5E_LINKCOUNT_g = external global i64, align 8
@.str.4 = private unnamed_addr constant [42 x i8] c"unable to adjust shared object link count\00", align 1
@__func__.H5O__shared_link = private unnamed_addr constant [17 x i8] c"H5O__shared_link\00", align 1

; Function Attrs: nounwind uwtable
define i32 @H5O__shared_link(ptr noundef %0, ptr noundef %1, ptr noundef %2, ptr noundef %3) #0 {
  %5 = alloca ptr, align 8
  %6 = alloca ptr, align 8
  %7 = alloca ptr, align 8
  %8 = alloca ptr, align 8
  %9 = alloca i32, align 4
  %10 = alloca i8, align 1
  store ptr %0, ptr %5, align 8
  store ptr %1, ptr %6, align 8
  store ptr %2, ptr %7, align 8
  store ptr %3, ptr %8, align 8
  store i32 0, ptr %9, align 4
  store i8 0, ptr %10, align 1
  %11 = load ptr, ptr %5, align 8
  %12 = load ptr, ptr %6, align 8
  %13 = load ptr, ptr %7, align 8
  %14 = load ptr, ptr %8, align 8
  %15 = call i32 @H5O__shared_link_adj(ptr noundef %11, ptr noundef %12, ptr noundef %13, ptr noundef %14, i32 noundef 1)
  %16 = icmp slt i32 %15, 0
  br i1 %16, label %17, label %32

17:                                               ; preds = %4
  br label %18

18:                                               ; preds = %17
  br label %19

19:                                               ; preds = %18
  br label %20

20:                                               ; preds = %19
  %21 = load i64, ptr @H5E_OHDR_g, align 8
  %22 = load i64, ptr @H5E_LINKCOUNT_g, align 8
  %23 = call i32 (ptr, ptr, i32, i64, i64, ptr, ...) @H5E_printf_stack(ptr noundef @.str, ptr noundef @__func__.H5O__shared_link, i32 noundef 540, i64 noundef %21, i64 noundef %22, ptr noundef @.str.4)
  br label %24

24:                                               ; preds = %20
  store i8 1, ptr %10, align 1
  %25 = load i8, ptr %10, align 1
  %26 = trunc i8 %25 to i1
  %27 = zext i1 %26 to i8
  store i8 %27, ptr %10, align 1
  br label %28

28:                                               ; preds = %24
  br label %29

29:                                               ; preds = %28
  store i32 -1, ptr %9, align 4
  br label %33

30:                                               ; No predecessors!
  br label %31

31:                                               ; preds = %30
  br label %32

32:                                               ; preds = %31, %4
  br label %33

33:                                               ; preds = %32, %29
  %34 = load i32, ptr %9, align 4
  ret i32 %34
}